target datalayout = "e-m:e-p270:32:32-p271:32:32-p272:64:64-i64:64-i128:128-f80:128-n8:16:32:64-S128"
target triple = "x86_64-pc-linux-gnu"

%class.XMMRegister = type { i32 }
%class.KRegister = type { i32 }

@g_assert_poison = external global ptr, align 8
@.str = private unnamed_addr constant [43 x i8] c"src/hotspot/cpu/x86/macroAssembler_x86.cpp\00", align 1
@.str.41 = private unnamed_addr constant [28 x i8] c"Unexpected type argument %s\00", align 1

; Function Attrs: mustprogress nounwind uwtable
define hidden void @_ZN14MacroAssembler5evxorE9BasicType11XMMRegister9KRegisterS1_S1_bi(ptr noundef nonnull align 8 dereferenceable(40) %0, i8 noundef zeroext %1, i32 %2, i32 %3, i32 %4, i32 %5, i1 noundef zeroext %6, i32 noundef %7) #1 align 2 {
  %9 = alloca %class.XMMRegister, align 4
  %10 = alloca %class.KRegister, align 4
  %11 = alloca %class.XMMRegister, align 4
  %12 = alloca %class.XMMRegister, align 4
  %13 = alloca ptr, align 8
  %14 = alloca i8, align 1
  %15 = alloca i8, align 1
  %16 = alloca i32, align 4
  %17 = alloca %class.XMMRegister, align 4
  %18 = alloca %class.KRegister, align 4
  %19 = alloca %class.XMMRegister, align 4
  %20 = alloca %class.XMMRegister, align 4
  %21 = alloca %class.XMMRegister, align 4
  %22 = alloca %class.KRegister, align 4
  %23 = alloca %class.XMMRegister, align 4
  %24 = alloca %class.XMMRegister, align 4
  %25 = getelementptr inbounds %class.XMMRegister, ptr %9, i32 0, i32 0
  store i32 %2, ptr %25, align 4
  %26 = getelementptr inbounds %class.KRegister, ptr %10, i32 0, i32 0
  store i32 %3, ptr %26, align 4
  %27 = getelementptr inbounds %class.XMMRegister, ptr %11, i32 0, i32 0
  store i32 %4, ptr %27, align 4
  %28 = getelementptr inbounds %class.XMMRegister, ptr %12, i32 0, i32 0
  store i32 %5, ptr %28, align 4
  store ptr %0, ptr %13, align 8
  store i8 %1, ptr %14, align 1
  %29 = zext i1 %6 to i8
  store i8 %29, ptr %15, align 1
  store i32 %7, ptr %16, align 4
  %30 = load ptr, ptr %13, align 8
  %31 = load i8, ptr %14, align 1
  %32 = zext i8 %31 to i32
  switch i32 %32, label %57 [
    i32 10, label %33
    i32 11, label %45
  ]

33:                                               ; preds = %8
  call void @llvm.memcpy.p0.p0.i64(ptr align 4 %17, ptr align 4 %9, i64 4, i1 false)
  call void @llvm.memcpy.p0.p0.i64(ptr align 4 %18, ptr align 4 %10, i64 4, i1 false)
  call void @llvm.memcpy.p0.p0.i64(ptr align 4 %19, ptr align 4 %11, i64 4, i1 false)
  call void @llvm.memcpy.p0.p0.i64(ptr align 4 %20, ptr align 4 %12, i64 4, i1 false)
  %34 = load i8, ptr %15, align 1
  %35 = trunc i8 %34 to i1
  %36 = load i32, ptr %16, align 4
  %37 = getelementptr inbounds %class.XMMRegister, ptr %17, i32 0, i32 0
  %38 = load i32, ptr %37, align 4
  %39 = getelementptr inbounds %class.KRegister, ptr %18, i32 0, i32 0
  %40 = load i32, ptr %39, align 4
  %41 = getelementptr inbounds %class.XMMRegister, ptr %19, i32 0, i32 0
  %42 = load i32, ptr %41, align 4
  %43 = getelementptr inbounds %class.XMMRegister, ptr %20, i32 0, i32 0
  %44 = load i32, ptr %43, align 4
  call void @_ZN9Assembler7evpxordE11XMMRegister9KRegisterS0_S0_bi(ptr noundef nonnull align 8 dereferenceable(40) %30, i32 %38, i32 %40, i32 %42, i32 %44, i1 noundef zeroext %35, i32 noundef %36)
  br label %63

45:                                               ; preds = %8
  call void @llvm.memcpy.p0.p0.i64(ptr align 4 %21, ptr align 4 %9, i64 4, i1 false)
  call void @llvm.memcpy.p0.p0.i64(ptr align 4 %22, ptr align 4 %10, i64 4, i1 false)
  call void @llvm.memcpy.p0.p0.i64(ptr align 4 %23, ptr align 4 %11, i64 4, i1 false)
  call void @llvm.memcpy.p0.p0.i64(ptr align 4 %24, ptr align 4 %12, i64 4, i1 false)
  %46 = load i8, ptr %15, align 1
  %47 = trunc i8 %46 to i1
  %48 = load i32, ptr %16, align 4
  %49 = getelementptr inbounds %class.XMMRegister, ptr %21, i32 0, i32 0
  %50 = load i32, ptr %49, align 4
  %51 = getelementptr inbounds %class.KRegister, ptr %22, i32 0, i32 0
  %52 = load i32, ptr %51, align 4
  %53 = getelementptr inbounds %class.XMMRegister, ptr %23, i32 0, i32 0
  %54 = load i32, ptr %53, align 4
  %55 = getelementptr inbounds %class.XMMRegister, ptr %24, i32 0, i32 0
  %56 = load i32, ptr %55, align 4
  call void @_ZN9Assembler7evpxorqE11XMMRegister9KRegisterS0_S0_bi(ptr noundef nonnull align 8 dereferenceable(40) %30, i32 %50, i32 %52, i32 %54, i32 %56, i1 noundef zeroext %47, i32 noundef %48)
  br label %63

57:                                               ; preds = %8
  br label %58

58:                                               ; preds = %57
  %59 = load ptr, ptr @g_assert_poison, align 8
  store i8 88, ptr %59, align 1
  %60 = load i8, ptr %14, align 1
  %61 = call noundef ptr @_Z9type2name9BasicType(i8 noundef zeroext %60)
  call void (i32, ptr, i32, ptr, ...) @_Z12report_fatal11VMErrorTypePKciS1_z(i32 noundef -536870912, ptr noundef @.str, i32 noundef 9564, ptr noundef @.str.41, ptr noundef %61) #8
  unreachable

62:                                               ; No predecessors!
  br label %63

63:                                               ; preds = %62, %45, %33
  ret void
}