; Function Attrs: mustprogress nounwind uwtable
define hidden void @_ZN14MacroAssembler5evxorE9BasicType11XMMRegister9KRegisterS1_S1_bi(ptr noundef nonnull align 8 dereferenceable(40) %0, i8 noundef zeroext %1, i32 %2, i32 %3, i32 %4, i32 %5, i1 noundef zeroext %6, i32 noundef %7) local_unnamed_addr #0 align 2 {
  switch i8 %1, label %11 [
    i8 10, label %9
    i8 11, label %10
  ]

9:                                                ; preds = %8
  tail call void @_ZN9Assembler7evpxordE11XMMRegister9KRegisterS0_S0_bi(ptr noundef nonnull align 8 dereferenceable(40) %0, i32 %2, i32 %3, i32 %4, i32 %5, i1 noundef zeroext %6, i32 noundef %7) #18
  br label %14

10:                                               ; preds = %8
  tail call void @_ZN9Assembler7evpxorqE11XMMRegister9KRegisterS0_S0_bi(ptr noundef nonnull align 8 dereferenceable(40) %0, i32 %2, i32 %3, i32 %4, i32 %5, i1 noundef zeroext %6, i32 noundef %7) #18
  br label %14

11:                                               ; preds = %8
  %12 = load ptr, ptr @g_assert_poison, align 8
  store i8 88, ptr %12, align 1
  %13 = tail call noundef ptr @_Z9type2name9BasicType(i8 noundef zeroext %1) #18
  tail call void (i32, ptr, i32, ptr, ...) @_Z12report_fatal11VMErrorTypePKciS1_z(i32 noundef -536870912, ptr noundef nonnull @.str, i32 noundef 9564, ptr noundef nonnull @.str.41, ptr noundef %13) #19
  unreachable

14:                                               ; preds = %10, %9
  ret void
}